; Function Attrs: nounwind uwtable
define ptr @Ptr_AbcObjName(ptr noundef %0) local_unnamed_addr #0 {
  %2 = getelementptr i8, ptr %0, i64 20
  %.val28 = load i32, ptr %2, align 4
  %3 = and i32 %.val28, 15
  %.not29 = icmp eq i32 %3, 6
  br i1 %.not29, label %._crit_edge, label %.lr.ph

.lr.ph:                                           ; preds = %1, %tailrecurse.backedge
  %4 = phi i32 [ %15, %tailrecurse.backedge ], [ %3, %1 ]
  %.val31 = phi i32 [ %.val, %tailrecurse.backedge ], [ %.val28, %1 ]
  %.tr30 = phi ptr [ %.tr.be, %tailrecurse.backedge ], [ %0, %1 ]
  %5 = and i32 %.val31, 14
  %switch.i = icmp ne i32 %5, 8
  %6 = icmp ne i32 %4, 10
  %narrow.i.not = and i1 %switch.i, %6
  br i1 %narrow.i.not, label %8, label %._crit_edge

._crit_edge:                                      ; preds = %tailrecurse.backedge, %.lr.ph, %1
  %.tr.lcssa = phi ptr [ %0, %1 ], [ %.tr30, %.lr.ph ], [ %.tr.be, %tailrecurse.backedge ]
  %7 = tail call ptr @Abc_ObjName(ptr noundef nonnull %.tr.lcssa) #19
  br label %.loopexit

8:                                                ; preds = %.lr.ph
  switch i32 %4, label %16 [
    i32 5, label %tailrecurse.backedge
    i32 2, label %tailrecurse.backedge
    i32 7, label %tailrecurse.backedge
  ]

tailrecurse.backedge:                             ; preds = %8, %8, %8, %16
  %.sink33 = phi i64 [ 32, %16 ], [ 48, %8 ], [ 48, %8 ], [ 48, %8 ]
  %.val16 = load ptr, ptr %.tr30, align 8, !tbaa !3
  %9 = getelementptr i8, ptr %.tr30, i64 %.sink33
  %.val17 = load ptr, ptr %9, align 8, !tbaa !29
  %10 = getelementptr i8, ptr %.val16, i64 32
  %.val16.val = load ptr, ptr %10, align 8, !tbaa !30
  %.val17.val = load i32, ptr %.val17, align 4, !tbaa !31
  %11 = getelementptr i8, ptr %.val16.val, i64 8
  %.val16.val.val = load ptr, ptr %11, align 8, !tbaa !32
  %12 = sext i32 %.val17.val to i64
  %13 = getelementptr inbounds ptr, ptr %.val16.val.val, i64 %12
  %.tr.be = load ptr, ptr %13, align 8, !tbaa !34
  %14 = getelementptr i8, ptr %.tr.be, i64 20
  %.val = load i32, ptr %14, align 4
  %15 = and i32 %.val, 15
  %.not = icmp eq i32 %15, 6
  br i1 %.not, label %._crit_edge, label %.lr.ph

16:                                               ; preds = %8
  %17 = add nsw i32 %4, -5
  %narrow.i22 = icmp ult i32 %17, -2
  br i1 %narrow.i22, label %.loopexit, label %tailrecurse.backedge

.loopexit:                                        ; preds = %16, %._crit_edge
  %.0 = phi ptr [ %7, %._crit_edge ], [ null, %16 ]
  ret ptr %.0
}